target datalayout = "e-m:e-p270:32:32-p271:32:32-p272:64:64-i64:64-i128:128-f80:128-n8:16:32:64-S128"
target triple = "x86_64-pc-linux-gnu"

%"class.cv::RBaseStream" = type <{ ptr, i8, [7 x i8], ptr, ptr, ptr, ptr, i32, i32, i8, [7 x i8] }>

; Function Attrs: mustprogress uwtable
define hidden void @_ZN2cv11RBaseStream8allocateEv(ptr noundef nonnull align 8 dereferenceable(57) %0) unnamed_addr #1 align 2 {
  %2 = alloca ptr, align 8
  store ptr %0, ptr %2, align 8, !tbaa !3
  %3 = load ptr, ptr %2, align 8
  %4 = getelementptr inbounds nuw %"class.cv::RBaseStream", ptr %3, i32 0, i32 1
  %5 = load i8, ptr %4, align 8, !tbaa !16, !range !14, !noundef !15
  %6 = trunc i8 %5 to i1
  br i1 %6, label %26, label %7

7:                                                ; preds = %1
  %8 = getelementptr inbounds nuw %"class.cv::RBaseStream", ptr %3, i32 0, i32 7
  %9 = load i32, ptr %8, align 8, !tbaa !17
  %10 = sext i32 %9 to i64
  %11 = icmp slt i64 %10, 0
  %12 = select i1 %11, i64 -1, i64 %10
  %13 = call noalias noundef nonnull ptr @_Znam(i64 noundef %12) #15
  %14 = getelementptr inbounds nuw %"class.cv::RBaseStream", ptr %3, i32 0, i32 3
  store ptr %13, ptr %14, align 8, !tbaa !18
  %15 = getelementptr inbounds nuw %"class.cv::RBaseStream", ptr %3, i32 0, i32 3
  %16 = load ptr, ptr %15, align 8, !tbaa !18
  %17 = getelementptr inbounds nuw %"class.cv::RBaseStream", ptr %3, i32 0, i32 7
  %18 = load i32, ptr %17, align 8, !tbaa !17
  %19 = sext i32 %18 to i64
  %20 = getelementptr inbounds i8, ptr %16, i64 %19
  %21 = getelementptr inbounds nuw %"class.cv::RBaseStream", ptr %3, i32 0, i32 4
  store ptr %20, ptr %21, align 8, !tbaa !19
  %22 = getelementptr inbounds nuw %"class.cv::RBaseStream", ptr %3, i32 0, i32 4
  %23 = load ptr, ptr %22, align 8, !tbaa !19
  %24 = getelementptr inbounds nuw %"class.cv::RBaseStream", ptr %3, i32 0, i32 5
  store ptr %23, ptr %24, align 8, !tbaa !20
  %25 = getelementptr inbounds nuw %"class.cv::RBaseStream", ptr %3, i32 0, i32 1
  store i8 1, ptr %25, align 8, !tbaa !16
  br label %26

26:                                               ; preds = %7, %1
  ret void
}