; Function Attrs: mustprogress uwtable
define hidden void @_ZN2cv11RBaseStream8allocateEv(ptr noundef nonnull align 8 captures(none) dereferenceable(57) %0) unnamed_addr #1 align 2 {
  %2 = getelementptr inbounds nuw i8, ptr %0, i64 8
  %3 = load i8, ptr %2, align 8, !tbaa !14, !range !12, !noundef !13
  %4 = trunc nuw i8 %3 to i1
  br i1 %4, label %15, label %5

5:                                                ; preds = %1
  %6 = getelementptr inbounds nuw i8, ptr %0, i64 48
  %7 = load i32, ptr %6, align 8, !tbaa !15
  %narrow = tail call i32 @llvm.smax.i32(i32 %7, i32 -1)
  %8 = sext i32 %narrow to i64
  %9 = tail call noalias noundef nonnull ptr @_Znam(i64 noundef %8) #20
  %10 = getelementptr inbounds nuw i8, ptr %0, i64 16
  store ptr %9, ptr %10, align 8, !tbaa !16
  %11 = sext i32 %7 to i64
  %12 = getelementptr inbounds i8, ptr %9, i64 %11
  %13 = getelementptr inbounds nuw i8, ptr %0, i64 24
  store ptr %12, ptr %13, align 8, !tbaa !17
  %14 = getelementptr inbounds nuw i8, ptr %0, i64 32
  store ptr %12, ptr %14, align 8, !tbaa !18
  store i8 1, ptr %2, align 8, !tbaa !14
  br label %15

15:                                               ; preds = %5, %1
  ret void
}